target datalayout = "e-m:e-p270:32:32-p271:32:32-p272:64:64-i64:64-i128:128-f80:128-n8:16:32:64-S128"
target triple = "x86_64-pc-linux-gnu"

%struct.clone_const_arg = type { i64, ptr }
%struct.rb_const_entry_struct = type { i32, i32, i64, i64 }
%struct.rbimpl_size_mul_overflow_tag = type { i8, i64 }

@.str.29 = private unnamed_addr constant [11 x i8] c"../class.c\00", align 1

; Function Attrs: inlinehint nounwind sspstrong willreturn memory(none) uwtable
define internal zeroext i1 @RB_IMMEDIATE_P(i64 noundef %0) #1 {
  %2 = alloca i64, align 8
  store i64 %0, ptr %2, align 8, !tbaa !7
  %3 = load i64, ptr %2, align 8, !tbaa !7
  %4 = and i64 %3, 7
  %5 = icmp ne i64 %4, 0
  ret i1 %5
}

; Function Attrs: inlinehint nounwind sspstrong willreturn memory(none) uwtable
define internal zeroext i1 @RB_SPECIAL_CONST_P(i64 noundef %0) #1 {
  %2 = alloca i64, align 8
  store i64 %0, ptr %2, align 8, !tbaa !7
  %3 = load i64, ptr %2, align 8, !tbaa !7
  %4 = icmp eq i64 %3, 0
  br i1 %4, label %8, label %5

5:                                                ; preds = %1
  %6 = load i64, ptr %2, align 8, !tbaa !7
  %7 = call zeroext i1 @RB_IMMEDIATE_P(i64 noundef %6) #22
  br label %8

8:                                                ; preds = %5, %1
  %9 = phi i1 [ true, %1 ], [ %7, %5 ]
  ret i1 %9
}

; Function Attrs: alwaysinline nounwind
define internal ptr @memcpy.inline(ptr noalias nonnull %0, ptr noalias nonnull %1, i64 %2) #15 {
  %4 = alloca ptr, align 8
  %5 = alloca ptr, align 8
  %6 = alloca i64, align 8
  store ptr %0, ptr %4, align 8, !tbaa !29
  store ptr %1, ptr %5, align 8, !tbaa !29
  store i64 %2, ptr %6, align 8, !tbaa !7
  %7 = load ptr, ptr %4, align 8, !tbaa !29
  %8 = load ptr, ptr %5, align 8, !tbaa !29
  %9 = load i64, ptr %6, align 8, !tbaa !7
  %10 = load ptr, ptr %4, align 8, !tbaa !29
  %11 = call i64 @llvm.objectsize.i64.p0(ptr %10, i1 false, i1 true, i1 false)
  %12 = call ptr @__memcpy_chk(ptr noundef %7, ptr noundef %8, i64 noundef %9, i64 noundef %11) #23
  ret ptr %12
}

; Function Attrs: inlinehint nounwind sspstrong willreturn memory(none) uwtable
define internal { i8, i64 } @rbimpl_size_mul_overflow(i64 noundef %0, i64 noundef %1) #1 {
  %3 = alloca %struct.rbimpl_size_mul_overflow_tag, align 8
  %4 = alloca i64, align 8
  %5 = alloca i64, align 8
  store i64 %0, ptr %4, align 8, !tbaa !7
  store i64 %1, ptr %5, align 8, !tbaa !7
  call void @llvm.memset.p0.i64(ptr align 8 %3, i8 0, i64 16, i1 false)
  %6 = load i64, ptr %4, align 8, !tbaa !7
  %7 = load i64, ptr %5, align 8, !tbaa !7
  %8 = getelementptr inbounds nuw %struct.rbimpl_size_mul_overflow_tag, ptr %3, i32 0, i32 1
  %9 = call { i64, i1 } @llvm.umul.with.overflow.i64(i64 %6, i64 %7)
  %10 = extractvalue { i64, i1 } %9, 1
  %11 = extractvalue { i64, i1 } %9, 0
  store i64 %11, ptr %8, align 8
  %12 = getelementptr inbounds nuw %struct.rbimpl_size_mul_overflow_tag, ptr %3, i32 0, i32 0
  %13 = zext i1 %10 to i8
  store i8 %13, ptr %12, align 8, !tbaa !148
  %14 = load { i8, i64 }, ptr %3, align 8
  ret { i8, i64 } %14
}

; Function Attrs: inlinehint nounwind sspstrong uwtable
define internal i64 @rb_obj_written(i64 noundef %0, i64 noundef %1, i64 noundef %2, ptr noundef %3, i32 noundef %4) #4 {
  %6 = alloca i64, align 8
  %7 = alloca i64, align 8
  %8 = alloca i64, align 8
  %9 = alloca ptr, align 8
  %10 = alloca i32, align 4
  store i64 %0, ptr %6, align 8, !tbaa !7
  store i64 %1, ptr %7, align 8, !tbaa !7
  store i64 %2, ptr %8, align 8, !tbaa !7
  store ptr %3, ptr %9, align 8, !tbaa !64
  store i32 %4, ptr %10, align 4, !tbaa !39
  %11 = load i64, ptr %8, align 8, !tbaa !7
  %12 = call zeroext i1 @RB_SPECIAL_CONST_P(i64 noundef %11) #22
  br i1 %12, label %16, label %13

13:                                               ; preds = %5
  %14 = load i64, ptr %6, align 8, !tbaa !7
  %15 = load i64, ptr %8, align 8, !tbaa !7
  call void @rb_gc_writebarrier(i64 noundef %14, i64 noundef %15)
  br label %16

16:                                               ; preds = %13, %5
  %17 = load i64, ptr %6, align 8, !tbaa !7
  ret i64 %17
}

; Function Attrs: inlinehint nounwind sspstrong memory(argmem: readwrite, inaccessiblemem: readwrite) uwtable
define internal nonnull ptr @ruby_nonempty_memcpy(ptr noundef nonnull %0, ptr noundef %1, i64 noundef %2) #9 {
  %4 = alloca ptr, align 8
  %5 = alloca ptr, align 8
  %6 = alloca ptr, align 8
  %7 = alloca i64, align 8
  store ptr %0, ptr %5, align 8, !tbaa !29
  store ptr %1, ptr %6, align 8, !tbaa !29
  store i64 %2, ptr %7, align 8, !tbaa !7
  %8 = load i64, ptr %7, align 8, !tbaa !7
  %9 = icmp ne i64 %8, 0
  br i1 %9, label %10, label %15

10:                                               ; preds = %3
  %11 = load ptr, ptr %5, align 8, !tbaa !29
  %12 = load ptr, ptr %6, align 8, !tbaa !29
  %13 = load i64, ptr %7, align 8, !tbaa !7
  %14 = call ptr @memcpy.inline(ptr noundef %11, ptr noundef %12, i64 noundef %13) #23
  store ptr %14, ptr %4, align 8
  br label %17

15:                                               ; preds = %3
  %16 = load ptr, ptr %5, align 8, !tbaa !29
  store ptr %16, ptr %4, align 8
  br label %17

17:                                               ; preds = %15, %10
  %18 = load ptr, ptr %4, align 8
  ret ptr %18
}

; Function Attrs: inlinehint nounwind sspstrong uwtable
define internal i64 @rbimpl_size_mul_or_raise(i64 noundef %0, i64 noundef %1) #4 {
  %3 = alloca i64, align 8
  %4 = alloca i64, align 8
  %5 = alloca %struct.rbimpl_size_mul_overflow_tag, align 8
  store i64 %0, ptr %3, align 8, !tbaa !7
  store i64 %1, ptr %4, align 8, !tbaa !7
  call void @llvm.lifetime.start.p0(i64 16, ptr %5) #23
  %6 = load i64, ptr %3, align 8, !tbaa !7
  %7 = load i64, ptr %4, align 8, !tbaa !7
  %8 = call { i8, i64 } @rbimpl_size_mul_overflow(i64 noundef %6, i64 noundef %7) #22
  %9 = getelementptr inbounds nuw { i8, i64 }, ptr %5, i32 0, i32 0
  %10 = extractvalue { i8, i64 } %8, 0
  store i8 %10, ptr %9, align 8
  %11 = getelementptr inbounds nuw { i8, i64 }, ptr %5, i32 0, i32 1
  %12 = extractvalue { i8, i64 } %8, 1
  store i64 %12, ptr %11, align 8
  %13 = getelementptr inbounds nuw %struct.rbimpl_size_mul_overflow_tag, ptr %5, i32 0, i32 0
  %14 = load i8, ptr %13, align 8, !tbaa !148, !range !62, !noundef !63
  %15 = trunc i8 %14 to i1
  %16 = xor i1 %15, true
  %17 = xor i1 %16, true
  %18 = xor i1 %17, true
  %19 = zext i1 %18 to i32
  %20 = sext i32 %19 to i64
  %21 = call i64 @llvm.expect.i64(i64 %20, i64 1)
  %22 = icmp ne i64 %21, 0
  br i1 %22, label %23, label %26

23:                                               ; preds = %2
  %24 = getelementptr inbounds nuw %struct.rbimpl_size_mul_overflow_tag, ptr %5, i32 0, i32 1
  %25 = load i64, ptr %24, align 8, !tbaa !150
  call void @llvm.lifetime.end.p0(i64 16, ptr %5) #23
  ret i64 %25

26:                                               ; preds = %2
  %27 = load i64, ptr %3, align 8, !tbaa !7
  %28 = load i64, ptr %4, align 8, !tbaa !7
  call void @ruby_malloc_size_overflow(i64 noundef %27, i64 noundef %28) #28
  unreachable
}

; Function Attrs: nounwind sspstrong uwtable
define internal i32 @clone_const(i64 noundef %0, ptr noundef %1, ptr noundef %2) #0 {
  %4 = alloca i64, align 8
  %5 = alloca ptr, align 8
  %6 = alloca ptr, align 8
  %7 = alloca ptr, align 8
  store i64 %0, ptr %4, align 8, !tbaa !7
  store ptr %1, ptr %5, align 8, !tbaa !141
  store ptr %2, ptr %6, align 8, !tbaa !143
  call void @llvm.lifetime.start.p0(i64 8, ptr %7) #23
  %8 = call noalias nonnull ptr @ruby_xmalloc(i64 noundef 24) #26
  store ptr %8, ptr %7, align 8, !tbaa !141
  %9 = load ptr, ptr %7, align 8, !tbaa !141
  %10 = load ptr, ptr %5, align 8, !tbaa !141
  %11 = call i64 @rbimpl_size_mul_or_raise(i64 noundef 24, i64 noundef 1)
  %12 = call nonnull ptr @ruby_nonempty_memcpy(ptr noundef %9, ptr noundef %10, i64 noundef %11) #27
  %13 = load ptr, ptr %6, align 8, !tbaa !143
  %14 = getelementptr inbounds nuw %struct.clone_const_arg, ptr %13, i32 0, i32 0
  %15 = load i64, ptr %14, align 8, !tbaa !58
  %16 = load ptr, ptr %5, align 8, !tbaa !141
  %17 = getelementptr inbounds nuw %struct.rb_const_entry_struct, ptr %16, i32 0, i32 2
  %18 = load i64, ptr %17, align 8, !tbaa !145
  %19 = call i64 @rb_obj_written(i64 noundef %15, i64 noundef 36, i64 noundef %18, ptr noundef @.str.29, i32 noundef 414)
  %20 = load ptr, ptr %6, align 8, !tbaa !143
  %21 = getelementptr inbounds nuw %struct.clone_const_arg, ptr %20, i32 0, i32 0
  %22 = load i64, ptr %21, align 8, !tbaa !58
  %23 = load ptr, ptr %5, align 8, !tbaa !141
  %24 = getelementptr inbounds nuw %struct.rb_const_entry_struct, ptr %23, i32 0, i32 3
  %25 = load i64, ptr %24, align 8, !tbaa !147
  %26 = call i64 @rb_obj_written(i64 noundef %22, i64 noundef 36, i64 noundef %25, ptr noundef @.str.29, i32 noundef 415)
  %27 = load ptr, ptr %6, align 8, !tbaa !143
  %28 = getelementptr inbounds nuw %struct.clone_const_arg, ptr %27, i32 0, i32 1
  %29 = load ptr, ptr %28, align 8, !tbaa !56
  %30 = load i64, ptr %4, align 8, !tbaa !7
  %31 = load ptr, ptr %7, align 8, !tbaa !141
  %32 = ptrtoint ptr %31 to i64
  %33 = call i32 @rb_id_table_insert(ptr noundef %29, i64 noundef %30, i64 noundef %32)
  call void @llvm.lifetime.end.p0(i64 8, ptr %7) #23
  ret i32 0
}

; Function Attrs: nounwind sspstrong uwtable
define internal i32 @clone_const_i(i64 noundef %0, i64 noundef %1, ptr noundef %2) #0 {
  %4 = alloca i64, align 8
  %5 = alloca i64, align 8
  %6 = alloca ptr, align 8
  store i64 %0, ptr %4, align 8, !tbaa !7
  store i64 %1, ptr %5, align 8, !tbaa !7
  store ptr %2, ptr %6, align 8, !tbaa !29
  %7 = load i64, ptr %4, align 8, !tbaa !7
  %8 = load i64, ptr %5, align 8, !tbaa !7
  %9 = inttoptr i64 %8 to ptr
  %10 = load ptr, ptr %6, align 8, !tbaa !29
  %11 = call i32 @clone_const(i64 noundef %7, ptr noundef %9, ptr noundef %10)
  ret i32 %11
}