; Function Attrs: nounwind sspstrong uwtable
define internal noundef i32 @clone_const_i(i64 noundef %0, i64 noundef %1, ptr noundef readonly captures(none) %2) #0 {
  %4 = inttoptr i64 %1 to ptr
  %5 = tail call noalias nonnull dereferenceable(24) ptr @ruby_xmalloc(i64 noundef 24) #20
  tail call void @llvm.memcpy.p0.p0.i64(ptr noundef nonnull align 1 dereferenceable(24) %5, ptr noundef nonnull readonly align 1 dereferenceable(24) %4, i64 noundef range(i64 1, 0) 24, i1 noundef false) #19
  %6 = getelementptr inbounds nuw i8, ptr %4, i64 8
  %7 = load i64, ptr %6, align 8, !tbaa !63
  %8 = icmp eq i64 %7, 0
  %9 = and i64 %7, 7
  %10 = icmp ne i64 %9, 0
  %11 = or i1 %8, %10
  br i1 %11, label %rb_obj_written.exit.i, label %12

12:                                               ; preds = %3
  %13 = load i64, ptr %2, align 8, !tbaa !56
  tail call void @rb_gc_writebarrier(i64 noundef %13, i64 noundef %7) #19
  br label %rb_obj_written.exit.i

rb_obj_written.exit.i:                            ; preds = %12, %3
  %14 = getelementptr inbounds nuw i8, ptr %4, i64 16
  %15 = load i64, ptr %14, align 8, !tbaa !65
  %16 = icmp eq i64 %15, 0
  %17 = and i64 %15, 7
  %18 = icmp ne i64 %17, 0
  %19 = or i1 %16, %18
  br i1 %19, label %clone_const.exit, label %20

20:                                               ; preds = %rb_obj_written.exit.i
  %21 = load i64, ptr %2, align 8, !tbaa !56
  tail call void @rb_gc_writebarrier(i64 noundef %21, i64 noundef %15) #19
  br label %clone_const.exit

clone_const.exit:                                 ; preds = %rb_obj_written.exit.i, %20
  %22 = getelementptr inbounds nuw i8, ptr %2, i64 8
  %23 = load ptr, ptr %22, align 8, !tbaa !54
  %24 = ptrtoint ptr %5 to i64
  %25 = tail call i32 @rb_id_table_insert(ptr noundef %23, i64 noundef %0, i64 noundef %24) #19
  ret i32 0
}